target datalayout = "e-m:e-p270:32:32-p271:32:32-p272:64:64-i64:64-i128:128-f80:128-n8:16:32:64-S128"
target triple = "x86_64-pc-linux-gnu"

%struct.pg_conn = type { ptr, ptr, ptr, ptr, ptr, ptr, ptr, ptr, ptr, ptr, ptr, ptr, ptr, ptr, ptr, ptr, ptr, ptr, ptr, ptr, ptr, ptr, ptr, ptr, ptr, ptr, ptr, ptr, ptr, ptr, ptr, ptr, ptr, ptr, ptr, ptr, ptr, ptr, ptr, ptr, ptr, ptr, ptr, i8, ptr, i32, %struct.PGNoticeHooks, ptr, i32, i32, i32, i32, i32, [6 x i8], i8, i8, i32, i8, i8, i32, i8, i32, ptr, ptr, i32, i32, ptr, ptr, ptr, ptr, ptr, i32, %struct.SockAddr, %struct.SockAddr, i32, i32, i8, i8, i8, i8, i8, i8, ptr, i8, i32, [1 x ptr], i8, i8, ptr, ptr, i32, i32, i32, i8, i8, i32, i32, ptr, i8, i64, ptr, i64, ptr, i32, i32, ptr, i32, i8, i32, i32, i32, i32, ptr, %struct.pg_prng_state, ptr, i32, i32, i32, i32, ptr, i32, i32, i32, i32, ptr, i32, ptr, i8, ptr, ptr, ptr, i32, i8, i8, i8, i8, i8, i8, i8, i8, %struct.PQExpBufferData, i32, %struct.PQExpBufferData }
%struct.PGNoticeHooks = type { ptr, ptr, ptr, ptr }
%struct.SockAddr = type { %struct.sockaddr_storage, i32 }
%struct.sockaddr_storage = type { i16, [118 x i8], i64 }
%struct.pg_prng_state = type { i64, i64 }
%struct.PQExpBufferData = type { ptr, i64, i64 }

@.str.28 = private unnamed_addr constant [35 x i8] c"PQgetline: not doing text COPY OUT\00", align 1
@.str.29 = private unnamed_addr constant [3 x i8] c"\\.\00", align 1

; Function Attrs: nounwind uwtable
define i32 @pqGetline3(ptr noundef %0, ptr noundef %1, i32 noundef %2) #0 {
  %4 = alloca i32, align 4
  %5 = alloca ptr, align 8
  %6 = alloca ptr, align 8
  %7 = alloca i32, align 4
  %8 = alloca i32, align 4
  %9 = alloca i32, align 4
  store ptr %0, ptr %5, align 8
  store ptr %1, ptr %6, align 8
  store i32 %2, ptr %7, align 4
  call void @llvm.lifetime.start.p0(i64 4, ptr %8) #11
  %10 = load ptr, ptr %5, align 8
  %11 = getelementptr inbounds nuw %struct.pg_conn, ptr %10, i32 0, i32 71
  %12 = load i32, ptr %11, align 8
  %13 = icmp eq i32 %12, -1
  br i1 %13, label %30, label %14

14:                                               ; preds = %3
  %15 = load ptr, ptr %5, align 8
  %16 = getelementptr inbounds nuw %struct.pg_conn, ptr %15, i32 0, i32 51
  %17 = load i32, ptr %16, align 4
  %18 = icmp ne i32 %17, 5
  br i1 %18, label %19, label %24

19:                                               ; preds = %14
  %20 = load ptr, ptr %5, align 8
  %21 = getelementptr inbounds nuw %struct.pg_conn, ptr %20, i32 0, i32 51
  %22 = load i32, ptr %21, align 4
  %23 = icmp ne i32 %22, 6
  br i1 %23, label %30, label %24

24:                                               ; preds = %19, %14
  %25 = load ptr, ptr %5, align 8
  %26 = getelementptr inbounds nuw %struct.pg_conn, ptr %25, i32 0, i32 60
  %27 = load i8, ptr %26, align 8
  %28 = sext i8 %27 to i32
  %29 = icmp ne i32 %28, 0
  br i1 %29, label %30, label %33

30:                                               ; preds = %24, %19, %3
  %31 = load ptr, ptr %5, align 8
  call void (ptr, ptr, ...) @libpq_append_conn_error(ptr noundef %31, ptr noundef @.str.28)
  %32 = load ptr, ptr %6, align 8
  store i8 0, ptr %32, align 1
  store i32 -1, ptr %4, align 4
  store i32 1, ptr %9, align 4
  br label %78

33:                                               ; preds = %24
  br label %34

34:                                               ; preds = %51, %33
  %35 = load ptr, ptr %5, align 8
  %36 = load ptr, ptr %6, align 8
  %37 = load i32, ptr %7, align 4
  %38 = sub i32 %37, 1
  %39 = call i32 @PQgetlineAsync(ptr noundef %35, ptr noundef %36, i32 noundef %38)
  store i32 %39, ptr %8, align 4
  %40 = icmp eq i32 %39, 0
  br i1 %40, label %41, label %52

41:                                               ; preds = %34
  %42 = load ptr, ptr %5, align 8
  %43 = call i32 @pqWait(i32 noundef 1, i32 noundef 0, ptr noundef %42)
  %44 = icmp ne i32 %43, 0
  br i1 %44, label %49, label %45

45:                                               ; preds = %41
  %46 = load ptr, ptr %5, align 8
  %47 = call i32 @pqReadData(ptr noundef %46)
  %48 = icmp slt i32 %47, 0
  br i1 %48, label %49, label %51

49:                                               ; preds = %45, %41
  %50 = load ptr, ptr %6, align 8
  store i8 0, ptr %50, align 1
  store i32 -1, ptr %4, align 4
  store i32 1, ptr %9, align 4
  br label %78

51:                                               ; preds = %45
  br label %34, !llvm.loop !20

52:                                               ; preds = %34
  %53 = load i32, ptr %8, align 4
  %54 = icmp slt i32 %53, 0
  br i1 %54, label %55, label %58

55:                                               ; preds = %52
  %56 = load ptr, ptr %6, align 8
  %57 = call ptr @strcpy(ptr noundef %56, ptr noundef @.str.29) #11
  store i32 0, ptr %4, align 4
  store i32 1, ptr %9, align 4
  br label %78

58:                                               ; preds = %52
  %59 = load ptr, ptr %6, align 8
  %60 = load i32, ptr %8, align 4
  %61 = sub i32 %60, 1
  %62 = sext i32 %61 to i64
  %63 = getelementptr inbounds i8, ptr %59, i64 %62
  %64 = load i8, ptr %63, align 1
  %65 = sext i8 %64 to i32
  %66 = icmp eq i32 %65, 10
  br i1 %66, label %67, label %73

67:                                               ; preds = %58
  %68 = load ptr, ptr %6, align 8
  %69 = load i32, ptr %8, align 4
  %70 = sub i32 %69, 1
  %71 = sext i32 %70 to i64
  %72 = getelementptr inbounds i8, ptr %68, i64 %71
  store i8 0, ptr %72, align 1
  store i32 0, ptr %4, align 4
  store i32 1, ptr %9, align 4
  br label %78

73:                                               ; preds = %58
  %74 = load ptr, ptr %6, align 8
  %75 = load i32, ptr %8, align 4
  %76 = sext i32 %75 to i64
  %77 = getelementptr inbounds i8, ptr %74, i64 %76
  store i8 0, ptr %77, align 1
  store i32 1, ptr %4, align 4
  store i32 1, ptr %9, align 4
  br label %78

78:                                               ; preds = %73, %67, %55, %49, %30
  call void @llvm.lifetime.end.p0(i64 4, ptr %8) #11
  %79 = load i32, ptr %4, align 4
  ret i32 %79
}