; Function Attrs: nounwind uwtable
define range(i32 -1, 2) i32 @pqGetline3(ptr noundef %0, ptr noundef %1, i32 noundef %2) local_unnamed_addr #0 {
  %4 = getelementptr inbounds nuw i8, ptr %0, i64 520
  %5 = load i32, ptr %4, align 8
  %6 = icmp eq i32 %5, -1
  br i1 %6, label %14, label %7

7:                                                ; preds = %3
  %8 = getelementptr inbounds nuw i8, ptr %0, i64 420
  %9 = load i32, ptr %8, align 4
  %.off = add i32 %9, -5
  %switch = icmp ult i32 %.off, 2
  br i1 %switch, label %10, label %14

10:                                               ; preds = %7
  %11 = getelementptr inbounds nuw i8, ptr %0, i64 448
  %12 = load i8, ptr %11, align 8
  %.not23 = icmp eq i8 %12, 0
  br i1 %.not23, label %.preheader, label %14

.preheader:                                       ; preds = %10
  %13 = add i32 %2, -1
  br label %15

14:                                               ; preds = %7, %10, %3
  tail call void (ptr, ptr, ...) @libpq_append_conn_error(ptr noundef nonnull %0, ptr noundef nonnull @.str.28) #16
  store i8 0, ptr %1, align 1
  br label %35

15:                                               ; preds = %.preheader, %20
  %16 = tail call i32 @PQgetlineAsync(ptr noundef %0, ptr noundef %1, i32 noundef %13) #16
  %17 = icmp eq i32 %16, 0
  br i1 %17, label %18, label %24

18:                                               ; preds = %15
  %19 = tail call i32 @pqWait(i32 noundef 1, i32 noundef 0, ptr noundef %0) #16
  %.not24 = icmp eq i32 %19, 0
  br i1 %.not24, label %20, label %23

20:                                               ; preds = %18
  %21 = tail call i32 @pqReadData(ptr noundef %0) #16
  %22 = icmp slt i32 %21, 0
  br i1 %22, label %23, label %15, !llvm.loop !17

23:                                               ; preds = %20, %18
  store i8 0, ptr %1, align 1
  br label %35

24:                                               ; preds = %15
  %25 = icmp slt i32 %16, 0
  br i1 %25, label %26, label %27

26:                                               ; preds = %24
  tail call void @llvm.memcpy.p0.p0.i64(ptr noundef nonnull align 1 dereferenceable(3) %1, ptr noundef nonnull align 1 dereferenceable(3) @.str.29, i64 3, i1 false) #16
  br label %35

27:                                               ; preds = %24
  %28 = zext nneg i32 %16 to i64
  %29 = getelementptr i8, ptr %1, i64 %28
  %30 = getelementptr i8, ptr %29, i64 -1
  %31 = load i8, ptr %30, align 1
  %32 = icmp eq i8 %31, 10
  br i1 %32, label %33, label %34

33:                                               ; preds = %27
  store i8 0, ptr %30, align 1
  br label %35

34:                                               ; preds = %27
  store i8 0, ptr %29, align 1
  br label %35

35:                                               ; preds = %34, %33, %26, %23, %14
  %.0 = phi i32 [ -1, %14 ], [ -1, %23 ], [ 0, %26 ], [ 0, %33 ], [ 1, %34 ]
  ret i32 %.0
}